target datalayout = "e-m:e-p270:32:32-p271:32:32-p272:64:64-i64:64-i128:128-f80:128-n8:16:32:64-S128"
target triple = "x86_64-pc-linux-gnu"

@bio_err = external global ptr, align 8
@.str.42 = private unnamed_addr constant [12 x i8] c"SSL_connect\00", align 1
@.str.43 = private unnamed_addr constant [11 x i8] c"SSL_accept\00", align 1
@.str.44 = private unnamed_addr constant [10 x i8] c"undefined\00", align 1
@.str.45 = private unnamed_addr constant [7 x i8] c"%s:%s\0A\00", align 1
@.str.46 = private unnamed_addr constant [5 x i8] c"read\00", align 1
@.str.47 = private unnamed_addr constant [6 x i8] c"write\00", align 1
@.str.48 = private unnamed_addr constant [21 x i8] c"SSL3 alert %s:%s:%s\0A\00", align 1
@.str.49 = private unnamed_addr constant [17 x i8] c"%s:failed in %s\0A\00", align 1
@.str.50 = private unnamed_addr constant [16 x i8] c"%s:error in %s\0A\00", align 1

; Function Attrs: nounwind uwtable
define void @apps_ssl_info_callback(ptr noundef %0, i32 noundef %1, i32 noundef %2) #0 {
  %4 = alloca ptr, align 8
  %5 = alloca i32, align 4
  %6 = alloca i32, align 4
  %7 = alloca ptr, align 8
  %8 = alloca i32, align 4
  store ptr %0, ptr %4, align 8, !tbaa !27
  store i32 %1, ptr %5, align 4, !tbaa !3
  store i32 %2, ptr %6, align 4, !tbaa !3
  call void @llvm.lifetime.start.p0(i64 8, ptr %7) #10
  call void @llvm.lifetime.start.p0(i64 4, ptr %8) #10
  %9 = load i32, ptr %5, align 4, !tbaa !3
  %10 = and i32 %9, -4096
  store i32 %10, ptr %8, align 4, !tbaa !3
  %11 = load i32, ptr %8, align 4, !tbaa !3
  %12 = and i32 %11, 4096
  %13 = icmp ne i32 %12, 0
  br i1 %13, label %14, label %15

14:                                               ; preds = %3
  store ptr @.str.42, ptr %7, align 8, !tbaa !21
  br label %22

15:                                               ; preds = %3
  %16 = load i32, ptr %8, align 4, !tbaa !3
  %17 = and i32 %16, 8192
  %18 = icmp ne i32 %17, 0
  br i1 %18, label %19, label %20

19:                                               ; preds = %15
  store ptr @.str.43, ptr %7, align 8, !tbaa !21
  br label %21

20:                                               ; preds = %15
  store ptr @.str.44, ptr %7, align 8, !tbaa !21
  br label %21

21:                                               ; preds = %20, %19
  br label %22

22:                                               ; preds = %21, %14
  %23 = load i32, ptr %5, align 4, !tbaa !3
  %24 = and i32 %23, 1
  %25 = icmp ne i32 %24, 0
  br i1 %25, label %26, label %32

26:                                               ; preds = %22
  %27 = load ptr, ptr @bio_err, align 8, !tbaa !14
  %28 = load ptr, ptr %7, align 8, !tbaa !21
  %29 = load ptr, ptr %4, align 8, !tbaa !27
  %30 = call ptr @SSL_state_string_long(ptr noundef %29)
  %31 = call i32 (ptr, ptr, ...) @BIO_printf(ptr noundef %27, ptr noundef @.str.45, ptr noundef %28, ptr noundef %30)
  br label %74

32:                                               ; preds = %22
  %33 = load i32, ptr %5, align 4, !tbaa !3
  %34 = and i32 %33, 16384
  %35 = icmp ne i32 %34, 0
  br i1 %35, label %36, label %48

36:                                               ; preds = %32
  %37 = load i32, ptr %5, align 4, !tbaa !3
  %38 = and i32 %37, 4
  %39 = icmp ne i32 %38, 0
  %40 = select i1 %39, ptr @.str.46, ptr @.str.47
  store ptr %40, ptr %7, align 8, !tbaa !21
  %41 = load ptr, ptr @bio_err, align 8, !tbaa !14
  %42 = load ptr, ptr %7, align 8, !tbaa !21
  %43 = load i32, ptr %6, align 4, !tbaa !3
  %44 = call ptr @SSL_alert_type_string_long(i32 noundef %43)
  %45 = load i32, ptr %6, align 4, !tbaa !3
  %46 = call ptr @SSL_alert_desc_string_long(i32 noundef %45)
  %47 = call i32 (ptr, ptr, ...) @BIO_printf(ptr noundef %41, ptr noundef @.str.48, ptr noundef %42, ptr noundef %44, ptr noundef %46)
  br label %73

48:                                               ; preds = %32
  %49 = load i32, ptr %5, align 4, !tbaa !3
  %50 = and i32 %49, 2
  %51 = icmp ne i32 %50, 0
  br i1 %51, label %52, label %72

52:                                               ; preds = %48
  %53 = load i32, ptr %6, align 4, !tbaa !3
  %54 = icmp eq i32 %53, 0
  br i1 %54, label %55, label %61

55:                                               ; preds = %52
  %56 = load ptr, ptr @bio_err, align 8, !tbaa !14
  %57 = load ptr, ptr %7, align 8, !tbaa !21
  %58 = load ptr, ptr %4, align 8, !tbaa !27
  %59 = call ptr @SSL_state_string_long(ptr noundef %58)
  %60 = call i32 (ptr, ptr, ...) @BIO_printf(ptr noundef %56, ptr noundef @.str.49, ptr noundef %57, ptr noundef %59)
  br label %71

61:                                               ; preds = %52
  %62 = load i32, ptr %6, align 4, !tbaa !3
  %63 = icmp slt i32 %62, 0
  br i1 %63, label %64, label %70

64:                                               ; preds = %61
  %65 = load ptr, ptr @bio_err, align 8, !tbaa !14
  %66 = load ptr, ptr %7, align 8, !tbaa !21
  %67 = load ptr, ptr %4, align 8, !tbaa !27
  %68 = call ptr @SSL_state_string_long(ptr noundef %67)
  %69 = call i32 (ptr, ptr, ...) @BIO_printf(ptr noundef %65, ptr noundef @.str.50, ptr noundef %66, ptr noundef %68)
  br label %70

70:                                               ; preds = %64, %61
  br label %71

71:                                               ; preds = %70, %55
  br label %72

72:                                               ; preds = %71, %48
  br label %73

73:                                               ; preds = %72, %36
  br label %74

74:                                               ; preds = %73, %26
  call void @llvm.lifetime.end.p0(i64 4, ptr %8) #10
  call void @llvm.lifetime.end.p0(i64 8, ptr %7) #10
  ret void
}