; Function Attrs: nounwind uwtable
define void @apps_ssl_info_callback(ptr noundef %0, i32 noundef %1, i32 noundef %2) local_unnamed_addr #0 {
  %4 = and i32 %1, 4096
  %.not = icmp eq i32 %4, 0
  %5 = and i32 %1, 8192
  %.not18 = icmp eq i32 %5, 0
  %.str.44..str.43 = select i1 %.not18, ptr @.str.44, ptr @.str.43
  %.0 = select i1 %.not, ptr %.str.44..str.43, ptr @.str.42
  %6 = and i32 %1, 1
  %.not19 = icmp eq i32 %6, 0
  br i1 %.not19, label %11, label %7

7:                                                ; preds = %3
  %8 = load ptr, ptr @bio_err, align 8, !tbaa !8
  %9 = tail call ptr @SSL_state_string_long(ptr noundef %0) #6
  %10 = tail call i32 (ptr, ptr, ...) @BIO_printf(ptr noundef %8, ptr noundef nonnull @.str.45, ptr noundef nonnull %.0, ptr noundef %9) #6
  br label %34

11:                                               ; preds = %3
  %12 = and i32 %1, 16384
  %.not20 = icmp eq i32 %12, 0
  br i1 %.not20, label %20, label %13

13:                                               ; preds = %11
  %14 = and i32 %1, 4
  %.not22 = icmp eq i32 %14, 0
  %15 = select i1 %.not22, ptr @.str.47, ptr @.str.46
  %16 = load ptr, ptr @bio_err, align 8, !tbaa !8
  %17 = tail call ptr @SSL_alert_type_string_long(i32 noundef %2) #6
  %18 = tail call ptr @SSL_alert_desc_string_long(i32 noundef %2) #6
  %19 = tail call i32 (ptr, ptr, ...) @BIO_printf(ptr noundef %16, ptr noundef nonnull @.str.48, ptr noundef nonnull %15, ptr noundef %17, ptr noundef %18) #6
  br label %34

20:                                               ; preds = %11
  %21 = and i32 %1, 2
  %.not21 = icmp eq i32 %21, 0
  br i1 %.not21, label %34, label %22

22:                                               ; preds = %20
  %23 = icmp eq i32 %2, 0
  br i1 %23, label %24, label %28

24:                                               ; preds = %22
  %25 = load ptr, ptr @bio_err, align 8, !tbaa !8
  %26 = tail call ptr @SSL_state_string_long(ptr noundef %0) #6
  %27 = tail call i32 (ptr, ptr, ...) @BIO_printf(ptr noundef %25, ptr noundef nonnull @.str.49, ptr noundef nonnull %.0, ptr noundef %26) #6
  br label %34

28:                                               ; preds = %22
  %29 = icmp slt i32 %2, 0
  br i1 %29, label %30, label %34

30:                                               ; preds = %28
  %31 = load ptr, ptr @bio_err, align 8, !tbaa !8
  %32 = tail call ptr @SSL_state_string_long(ptr noundef %0) #6
  %33 = tail call i32 (ptr, ptr, ...) @BIO_printf(ptr noundef %31, ptr noundef nonnull @.str.50, ptr noundef nonnull %.0, ptr noundef %32) #6
  br label %34

34:                                               ; preds = %13, %24, %30, %28, %20, %7
  ret void
}